; ModuleID = '60/1847.c'
source_filename = "60/1847.c"
target datalayout = "e-m:e-p270:32:32-p271:32:32-p272:64:64-i64:64-f80:128-n8:16:32:64-S128"
target triple = "x86_64-pc-linux-gnu"

@.str = private unnamed_addr constant [3 x i8] c"%d\00", align 1
@.str.1 = private unnamed_addr constant [7 x i8] c"%d %d\0A\00", align 1
@.str.2 = private unnamed_addr constant [6 x i8] c"empty\00", align 1

; Function Attrs: noinline nounwind uwtable
define dso_local i32 @main() #0 {
  %1 = alloca i32, align 4
  %2 = alloca i32, align 4
  %3 = alloca i32, align 4
  %4 = alloca i32, align 4
  %5 = alloca i32, align 4
  %6 = alloca i32, align 4
  %7 = alloca i32, align 4
  %8 = alloca i32, align 4
  %9 = alloca i32, align 4
  store i32 0, i32* %1, align 4
  %10 = call i32 (i8*, ...) @__isoc99_scanf(i8* getelementptr inbounds ([3 x i8], [3 x i8]* @.str, i64 0, i64 0), i32* %2)
  store i32 0, i32* %9, align 4
  store i32 3, i32* %7, align 4
  br label %11

11:                                               ; preds = %61, %0
  %12 = load i32, i32* %7, align 4
  %13 = load i32, i32* %2, align 4
  %14 = icmp sle i32 %12, %13
  br i1 %14, label %15, label %64

15:                                               ; preds = %11
  %16 = load i32, i32* %7, align 4
  %17 = add nsw i32 %16, 2
  store i32 %17, i32* %8, align 4
  store i32 1, i32* %4, align 4
  store i32 1, i32* %5, align 4
  store i32 2, i32* %3, align 4
  br label %18

18:                                               ; preds = %29, %15
  %19 = load i32, i32* %3, align 4
  %20 = load i32, i32* %7, align 4
  %21 = icmp slt i32 %19, %20
  br i1 %21, label %22, label %32

22:                                               ; preds = %18
  %23 = load i32, i32* %7, align 4
  %24 = load i32, i32* %3, align 4
  %25 = srem i32 %23, %24
  %26 = icmp eq i32 %25, 0
  br i1 %26, label %27, label %28

27:                                               ; preds = %22
  store i32 0, i32* %4, align 4
  br label %28

28:                                               ; preds = %27, %22
  br label %29

29:                                               ; preds = %28
  %30 = load i32, i32* %3, align 4
  %31 = add nsw i32 %30, 1
  store i32 %31, i32* %3, align 4
  br label %18

32:                                               ; preds = %18
  store i32 2, i32* %6, align 4
  br label %33

33:                                               ; preds = %44, %32
  %34 = load i32, i32* %6, align 4
  %35 = load i32, i32* %8, align 4
  %36 = icmp slt i32 %34, %35
  br i1 %36, label %37, label %47

37:                                               ; preds = %33
  %38 = load i32, i32* %8, align 4
  %39 = load i32, i32* %6, align 4
  %40 = srem i32 %38, %39
  %41 = icmp eq i32 %40, 0
  br i1 %41, label %42, label %43

42:                                               ; preds = %37
  store i32 0, i32* %5, align 4
  br label %43

43:                                               ; preds = %42, %37
  br label %44

44:                                               ; preds = %43
  %45 = load i32, i32* %6, align 4
  %46 = add nsw i32 %45, 1
  store i32 %46, i32* %6, align 4
  br label %33

47:                                               ; preds = %33
  %48 = load i32, i32* %4, align 4
  %49 = load i32, i32* %5, align 4
  %50 = mul nsw i32 %48, %49
  %51 = icmp eq i32 %50, 1
  br i1 %51, label %52, label %60

52:                                               ; preds = %47
  %53 = load i32, i32* %8, align 4
  %54 = load i32, i32* %2, align 4
  %55 = icmp sle i32 %53, %54
  br i1 %55, label %56, label %60

56:                                               ; preds = %52
  %57 = load i32, i32* %7, align 4
  %58 = load i32, i32* %8, align 4
  %59 = call i32 (i8*, ...) @printf(i8* getelementptr inbounds ([7 x i8], [7 x i8]* @.str.1, i64 0, i64 0), i32 %57, i32 %58)
  store i32 1, i32* %9, align 4
  br label %60

60:                                               ; preds = %56, %52, %47
  br label %61

61:                                               ; preds = %60
  %62 = load i32, i32* %7, align 4
  %63 = add nsw i32 %62, 1
  store i32 %63, i32* %7, align 4
  br label %11

64:                                               ; preds = %11
  %65 = load i32, i32* %9, align 4
  %66 = icmp eq i32 %65, 0
  br i1 %66, label %67, label %69

67:                                               ; preds = %64
  %68 = call i32 (i8*, ...) @printf(i8* getelementptr inbounds ([6 x i8], [6 x i8]* @.str.2, i64 0, i64 0))
  br label %69

69:                                               ; preds = %67, %64
  ret i32 0
}

declare dso_local i32 @__isoc99_scanf(i8*, ...) #1

declare dso_local i32 @printf(i8*, ...) #1


!llvm.module.flags = !{!0}
!llvm.ident = !{!1}

!0 = !{i32 1, !"wchar_size", i32 4}
!1 = !{!"clang version 10.0.0-4ubuntu1 "}
